; ModuleID = 'source-C-CXX/61/1118.c'
source_filename = "source-C-CXX/61/1118.c"
target datalayout = "e-m:e-p270:32:32-p271:32:32-p272:64:64-i64:64-f80:128-n8:16:32:64-S128"
target triple = "x86_64-pc-linux-gnu"

@.str = private unnamed_addr constant [4 x i8] c"%s \00", align 1
@.str.1 = private unnamed_addr constant [3 x i8] c"%s\00", align 1

; Function Attrs: nounwind sspstrong uwtable
define dso_local i32 @main() local_unnamed_addr #0 {
  %1 = alloca [100 x [100 x i8]], align 16
  %2 = alloca [100 x i8], align 16
  %3 = getelementptr inbounds [100 x [100 x i8]], [100 x [100 x i8]]* %1, i64 0, i64 0, i64 0
  call void @llvm.lifetime.start.p0i8(i64 10000, i8* nonnull %3) #5
  %4 = getelementptr inbounds [100 x i8], [100 x i8]* %2, i64 0, i64 0
  call void @llvm.lifetime.start.p0i8(i64 100, i8* nonnull %4) #5
  %5 = call i32 (i8*, ...) bitcast (i32 (...)* @gets to i32 (i8*, ...)*)(i8* nonnull %4) #5
  %6 = call i64 @strlen(i8* noundef nonnull %4) #6
  br label %11

7:                                                ; preds = %31
  %8 = icmp sgt i32 %32, 0
  br i1 %8, label %9, label %42

9:                                                ; preds = %7
  %10 = zext i32 %32 to i64
  br label %36

11:                                               ; preds = %0, %31
  %12 = phi i64 [ 0, %0 ], [ %34, %31 ]
  %13 = phi i32 [ 0, %0 ], [ %33, %31 ]
  %14 = phi i32 [ 0, %0 ], [ %32, %31 ]
  %15 = getelementptr inbounds [100 x i8], [100 x i8]* %2, i64 0, i64 %12
  %16 = load i8, i8* %15, align 1, !tbaa !5
  %17 = icmp eq i8 %16, 32
  br i1 %17, label %31, label %18

18:                                               ; preds = %11
  %19 = add nuw nsw i64 %12, 1
  %20 = getelementptr inbounds [100 x i8], [100 x i8]* %2, i64 0, i64 %19
  %21 = load i8, i8* %20, align 1, !tbaa !5
  %22 = sext i32 %14 to i64
  %23 = sext i32 %13 to i64
  %24 = getelementptr inbounds [100 x [100 x i8]], [100 x [100 x i8]]* %1, i64 0, i64 %22, i64 %23
  store i8 %16, i8* %24, align 1, !tbaa !5
  %25 = add nsw i32 %13, 1
  %26 = icmp eq i8 %21, 32
  br i1 %26, label %27, label %31

27:                                               ; preds = %18
  %28 = xor i1 %17, true
  %29 = zext i1 %28 to i32
  %30 = add nsw i32 %14, %29
  br label %31

31:                                               ; preds = %11, %27, %18
  %32 = phi i32 [ %14, %18 ], [ %30, %27 ], [ %14, %11 ]
  %33 = phi i32 [ %25, %18 ], [ 0, %27 ], [ %13, %11 ]
  %34 = add nuw nsw i64 %12, 1
  %35 = icmp eq i64 %12, %6
  br i1 %35, label %7, label %11, !llvm.loop !8

36:                                               ; preds = %9, %36
  %37 = phi i64 [ 0, %9 ], [ %40, %36 ]
  %38 = getelementptr inbounds [100 x [100 x i8]], [100 x [100 x i8]]* %1, i64 0, i64 %37, i64 0
  %39 = call i32 (i8*, ...) @printf(i8* nonnull dereferenceable(1) getelementptr inbounds ([4 x i8], [4 x i8]* @.str, i64 0, i64 0), i8* nonnull %38)
  %40 = add nuw nsw i64 %37, 1
  %41 = icmp eq i64 %40, %10
  br i1 %41, label %42, label %36, !llvm.loop !10

42:                                               ; preds = %36, %7
  %43 = sext i32 %32 to i64
  %44 = getelementptr inbounds [100 x [100 x i8]], [100 x [100 x i8]]* %1, i64 0, i64 %43, i64 0
  %45 = call i32 (i8*, ...) @printf(i8* nonnull dereferenceable(1) getelementptr inbounds ([3 x i8], [3 x i8]* @.str.1, i64 0, i64 0), i8* nonnull %44)
  call void @llvm.lifetime.end.p0i8(i64 100, i8* nonnull %4) #5
  call void @llvm.lifetime.end.p0i8(i64 10000, i8* nonnull %3) #5
  ret i32 0
}

; Function Attrs: argmemonly mustprogress nofree nosync nounwind willreturn
declare void @llvm.lifetime.start.p0i8(i64 immarg, i8* nocapture) #1

declare i32 @gets(...) local_unnamed_addr #2

; Function Attrs: argmemonly mustprogress nofree nounwind readonly willreturn
declare i64 @strlen(i8* nocapture) local_unnamed_addr #3

; Function Attrs: nofree nounwind
declare noundef i32 @printf(i8* nocapture noundef readonly, ...) local_unnamed_addr #4

; Function Attrs: argmemonly mustprogress nofree nosync nounwind willreturn
declare void @llvm.lifetime.end.p0i8(i64 immarg, i8* nocapture) #1


!llvm.module.flags = !{!0, !1, !2, !3}
!llvm.ident = !{!4}

!0 = !{i32 1, !"wchar_size", i32 4}
!1 = !{i32 7, !"PIC Level", i32 2}
!2 = !{i32 7, !"PIE Level", i32 2}
!3 = !{i32 7, !"uwtable", i32 1}
!4 = !{!"clang version 13.0.0"}
!5 = !{!6, !6, i64 0}
!6 = !{!"omnipotent char", !7, i64 0}
!7 = !{!"Simple C/C++ TBAA"}
!8 = distinct !{!8, !9}
!9 = !{!"llvm.loop.mustprogress"}
!10 = distinct !{!10, !9}
